target datalayout = "e-m:e-p270:32:32-p271:32:32-p272:64:64-i64:64-i128:128-f80:128-n8:16:32:64-S128"
target triple = "x86_64-pc-linux-gnu"

%class.QWidget = type { %class.QObject, %class.QPaintDevice, ptr }
%class.QObject = type { ptr, %class.QScopedPointer }
%class.QScopedPointer = type { ptr }
%class.QPaintDevice = type { ptr, i16, ptr }
%class.QFlags = type { i32 }
%class.MLRenderingParametersFrame = type <{ %class.QFrame, i32, [4 x i8] }>
%class.QFrame = type { %class.QWidget }

@_ZTV26MLRenderingParametersFrame = external unnamed_addr constant { [61 x ptr], [10 x ptr] }, align 8
@_ZTV30MLRenderingBBoxParametersFrame = external unnamed_addr constant { [61 x ptr], [10 x ptr] }, align 8

; Function Attrs: mustprogress nounwind uwtable
define linkonce_odr void @_ZN6QFlagsIN2Qt10WindowTypeEEC2Ev(ptr noundef nonnull align 4 dereferenceable(4) %0) unnamed_addr #4 comdat align 2 {
  %2 = alloca ptr, align 8
  store ptr %0, ptr %2, align 8
  %3 = load ptr, ptr %2, align 8
  %4 = getelementptr inbounds %class.QFlags, ptr %3, i32 0, i32 0
  store i32 0, ptr %4, align 4
  ret void
}

; Function Attrs: mustprogress nounwind uwtable
define void @_ZN26MLRenderingParametersFrameD2Ev(ptr noundef nonnull align 8 dereferenceable(52) %0) unnamed_addr #4 align 2 {
  %2 = alloca ptr, align 8
  store ptr %0, ptr %2, align 8
  %3 = load ptr, ptr %2, align 8
  call void @_ZN6QFrameD2Ev(ptr noundef nonnull align 8 dereferenceable(48) %3) #3
  ret void
}

; Function Attrs: mustprogress uwtable
define void @_ZN26MLRenderingParametersFrameC2EiP7QWidget(ptr noundef nonnull align 8 dereferenceable(52) %0, i32 noundef %1, ptr noundef %2) unnamed_addr #5 align 2 {
  %4 = alloca ptr, align 8
  %5 = alloca i32, align 4
  %6 = alloca ptr, align 8
  %7 = alloca %class.QFlags, align 4
  store ptr %0, ptr %4, align 8
  store i32 %1, ptr %5, align 4
  store ptr %2, ptr %6, align 8
  %8 = load ptr, ptr %4, align 8
  %9 = load ptr, ptr %6, align 8
  call void @_ZN6QFlagsIN2Qt10WindowTypeEEC2Ev(ptr noundef nonnull align 4 dereferenceable(4) %7) #3
  %10 = getelementptr inbounds %class.QFlags, ptr %7, i32 0, i32 0
  %11 = load i32, ptr %10, align 4
  call void @_ZN6QFrameC2EP7QWidget6QFlagsIN2Qt10WindowTypeEE(ptr noundef nonnull align 8 dereferenceable(48) %8, ptr noundef %9, i32 %11)
  store ptr getelementptr inbounds ({ [61 x ptr], [10 x ptr] }, ptr @_ZTV26MLRenderingParametersFrame, i32 0, i32 0, i32 2), ptr %8, align 8
  %12 = getelementptr inbounds i8, ptr %8, i64 16
  store ptr getelementptr inbounds ({ [61 x ptr], [10 x ptr] }, ptr @_ZTV26MLRenderingParametersFrame, i32 0, i32 1, i32 2), ptr %12, align 8
  %13 = getelementptr inbounds %class.MLRenderingParametersFrame, ptr %8, i32 0, i32 1
  %14 = load i32, ptr %5, align 4
  store i32 %14, ptr %13, align 8
  ret void
}

; Function Attrs: mustprogress uwtable
define void @_ZN30MLRenderingBBoxParametersFrameC2EP7QWidget(ptr noundef nonnull align 8 dereferenceable(96) %0, ptr noundef %1) unnamed_addr #5 align 2 personality ptr @__gxx_personality_v0 {
  %3 = alloca ptr, align 8
  %4 = alloca ptr, align 8
  %5 = alloca ptr, align 8
  %6 = alloca i32, align 4
  store ptr %0, ptr %3, align 8
  store ptr %1, ptr %4, align 8
  %7 = load ptr, ptr %3, align 8
  %8 = load ptr, ptr %4, align 8
  call void @_ZN26MLRenderingParametersFrameC2EiP7QWidget(ptr noundef nonnull align 8 dereferenceable(52) %7, i32 noundef -1, ptr noundef %8)
  store ptr getelementptr inbounds ({ [61 x ptr], [10 x ptr] }, ptr @_ZTV30MLRenderingBBoxParametersFrame, i32 0, i32 0, i32 2), ptr %7, align 8
  %9 = getelementptr inbounds i8, ptr %7, i64 16
  store ptr getelementptr inbounds ({ [61 x ptr], [10 x ptr] }, ptr @_ZTV30MLRenderingBBoxParametersFrame, i32 0, i32 1, i32 2), ptr %9, align 8
  invoke void @_ZN30MLRenderingBBoxParametersFrame7initGuiEv(ptr noundef nonnull align 8 dereferenceable(96) %7)
          to label %10 unwind label %11

10:                                               ; preds = %2
  ret void

11:                                               ; preds = %2
  %12 = landingpad { ptr, i32 }
          cleanup
  %13 = extractvalue { ptr, i32 } %12, 0
  store ptr %13, ptr %5, align 8
  %14 = extractvalue { ptr, i32 } %12, 1
  store i32 %14, ptr %6, align 4
  call void @_ZN26MLRenderingParametersFrameD2Ev(ptr noundef nonnull align 8 dereferenceable(52) %7) #3
  br label %15

15:                                               ; preds = %11
  %16 = load ptr, ptr %5, align 8
  %17 = load i32, ptr %6, align 4
  %18 = insertvalue { ptr, i32 } poison, ptr %16, 0
  %19 = insertvalue { ptr, i32 } %18, i32 %17, 1
  resume { ptr, i32 } %19
}