; Function Attrs: mustprogress uwtable
define void @_ZN30MLRenderingBBoxParametersFrameC2EP7QWidget(ptr noundef nonnull align 8 dereferenceable(96) %0, ptr noundef %1) unnamed_addr #3 align 2 personality ptr @__gxx_personality_v0 {
  tail call void @_ZN6QFrameC2EP7QWidget6QFlagsIN2Qt10WindowTypeEE(ptr noundef nonnull align 8 dereferenceable(48) %0, ptr noundef %1, i32 0)
  %3 = getelementptr inbounds i8, ptr %0, i64 16
  %4 = getelementptr inbounds i8, ptr %0, i64 48
  store i32 -1, ptr %4, align 8
  store ptr getelementptr inbounds ({ [61 x ptr], [10 x ptr] }, ptr @_ZTV30MLRenderingBBoxParametersFrame, i64 0, i32 0, i64 2), ptr %0, align 8
  store ptr getelementptr inbounds ({ [61 x ptr], [10 x ptr] }, ptr @_ZTV30MLRenderingBBoxParametersFrame, i64 0, i32 1, i64 2), ptr %3, align 8
  invoke void @_ZN30MLRenderingBBoxParametersFrame7initGuiEv(ptr noundef nonnull align 8 dereferenceable(96) %0)
          to label %5 unwind label %6

5:                                                ; preds = %2
  ret void

6:                                                ; preds = %2
  %7 = landingpad { ptr, i32 }
          cleanup
  tail call void @_ZN6QFrameD2Ev(ptr noundef nonnull align 8 dereferenceable(48) %0) #23
  resume { ptr, i32 } %7
}